target datalayout = "e-m:e-p270:32:32-p271:32:32-p272:64:64-i64:64-i128:128-f80:128-n8:16:32:64-S128"
target triple = "x86_64-pc-linux-gnu"

%struct.ident_t = type { i32, i32, i32, i32, ptr }

@1 = private unnamed_addr constant %struct.ident_t { i32 0, i32 514, i32 0, i32 22, ptr @0 }, align 8
@2 = private unnamed_addr constant %struct.ident_t { i32 0, i32 66, i32 0, i32 22, ptr @0 }, align 8
@.gomp_critical_user_.reduction.var = common global [8 x i32] zeroinitializer, align 8
@4 = private unnamed_addr constant %struct.ident_t { i32 0, i32 18, i32 0, i32 22, ptr @0 }, align 8

; Function Attrs: alwaysinline norecurse nounwind uwtable
define internal void @statevec_calcInnerProductLocal.omp_outlined(ptr noalias noundef %0, ptr noalias noundef %1, ptr noundef nonnull align 8 dereferenceable(8) %2, ptr noundef nonnull align 8 dereferenceable(8) %3, ptr noundef nonnull align 8 dereferenceable(8) %4, ptr noundef nonnull align 8 dereferenceable(8) %5, ptr noundef nonnull align 8 dereferenceable(8) %6, ptr noundef nonnull align 8 dereferenceable(8) %7, ptr noundef nonnull align 8 dereferenceable(8) %8) #2 {
  %10 = alloca ptr, align 8
  %11 = alloca ptr, align 8
  %12 = alloca ptr, align 8
  %13 = alloca ptr, align 8
  %14 = alloca ptr, align 8
  %15 = alloca ptr, align 8
  %16 = alloca ptr, align 8
  %17 = alloca ptr, align 8
  %18 = alloca ptr, align 8
  %19 = alloca double, align 8
  %20 = alloca double, align 8
  %21 = alloca double, align 8
  %22 = alloca double, align 8
  %23 = alloca double, align 8
  %24 = alloca double, align 8
  %25 = alloca i64, align 8
  %26 = alloca i64, align 8
  %27 = alloca i64, align 8
  %28 = alloca i64, align 8
  %29 = alloca i64, align 8
  %30 = alloca i64, align 8
  %31 = alloca i64, align 8
  %32 = alloca i32, align 4
  %33 = alloca i64, align 8
  %34 = alloca [2 x ptr], align 8
  store ptr %0, ptr %10, align 8, !tbaa !19
  store ptr %1, ptr %11, align 8, !tbaa !19
  store ptr %2, ptr %12, align 8, !tbaa !21
  store ptr %3, ptr %13, align 8, !tbaa !33
  store ptr %4, ptr %14, align 8, !tbaa !33
  store ptr %5, ptr %15, align 8, !tbaa !33
  store ptr %6, ptr %16, align 8, !tbaa !33
  store ptr %7, ptr %17, align 8, !tbaa !25
  store ptr %8, ptr %18, align 8, !tbaa !25
  %35 = load ptr, ptr %12, align 8, !tbaa !21
  %36 = load ptr, ptr %13, align 8, !tbaa !33
  %37 = load ptr, ptr %14, align 8, !tbaa !33
  %38 = load ptr, ptr %15, align 8, !tbaa !33
  %39 = load ptr, ptr %16, align 8, !tbaa !33
  %40 = load ptr, ptr %17, align 8, !tbaa !25
  %41 = load ptr, ptr %18, align 8, !tbaa !25
  call void @llvm.lifetime.start.p0(i64 8, ptr %19) #3
  call void @llvm.lifetime.start.p0(i64 8, ptr %20) #3
  call void @llvm.lifetime.start.p0(i64 8, ptr %21) #3
  call void @llvm.lifetime.start.p0(i64 8, ptr %22) #3
  call void @llvm.lifetime.start.p0(i64 8, ptr %23) #3
  store double 0.000000e+00, ptr %23, align 8, !tbaa !10
  call void @llvm.lifetime.start.p0(i64 8, ptr %24) #3
  store double 0.000000e+00, ptr %24, align 8, !tbaa !10
  call void @llvm.lifetime.start.p0(i64 8, ptr %25) #3
  call void @llvm.lifetime.start.p0(i64 8, ptr %26) #3
  %42 = load i64, ptr %35, align 8, !tbaa !4
  store i64 %42, ptr %26, align 8, !tbaa !4
  call void @llvm.lifetime.start.p0(i64 8, ptr %27) #3
  %43 = load i64, ptr %26, align 8, !tbaa !4
  %44 = sub nsw i64 %43, 0
  %45 = sdiv i64 %44, 1
  %46 = sub nsw i64 %45, 1
  store i64 %46, ptr %27, align 8, !tbaa !4
  call void @llvm.lifetime.start.p0(i64 8, ptr %28) #3
  store i64 0, ptr %28, align 8, !tbaa !4
  call void @llvm.lifetime.end.p0(i64 8, ptr %28) #3
  %47 = load i64, ptr %26, align 8, !tbaa !4
  %48 = icmp slt i64 0, %47
  br i1 %48, label %49, label %113

49:                                               ; preds = %9
  call void @llvm.lifetime.start.p0(i64 8, ptr %29) #3
  store i64 0, ptr %29, align 8, !tbaa !4
  call void @llvm.lifetime.start.p0(i64 8, ptr %30) #3
  %50 = load i64, ptr %27, align 8, !tbaa !4
  store i64 %50, ptr %30, align 8, !tbaa !4
  call void @llvm.lifetime.start.p0(i64 8, ptr %31) #3
  store i64 1, ptr %31, align 8, !tbaa !4
  call void @llvm.lifetime.start.p0(i64 4, ptr %32) #3
  store i32 0, ptr %32, align 4, !tbaa !8
  call void @llvm.lifetime.start.p0(i64 8, ptr %33) #3
  %51 = load ptr, ptr %10, align 8
  %52 = load i32, ptr %51, align 4, !tbaa !8
  call void @__kmpc_for_static_init_8(ptr @1, i32 %52, i32 34, ptr %32, ptr %29, ptr %30, ptr %31, i64 1, i64 1)
  %53 = load i64, ptr %30, align 8, !tbaa !4
  %54 = load i64, ptr %27, align 8, !tbaa !4
  %55 = icmp sgt i64 %53, %54
  br i1 %55, label %56, label %58

56:                                               ; preds = %49
  %57 = load i64, ptr %27, align 8, !tbaa !4
  br label %60

58:                                               ; preds = %49
  %59 = load i64, ptr %30, align 8, !tbaa !4
  br label %60

60:                                               ; preds = %58, %56
  %61 = phi i64 [ %57, %56 ], [ %59, %58 ]
  store i64 %61, ptr %30, align 8, !tbaa !4
  %62 = load i64, ptr %29, align 8, !tbaa !4
  store i64 %62, ptr %25, align 8, !tbaa !4
  br label %63

63:                                               ; preds = %106, %60
  %64 = load i64, ptr %25, align 8, !tbaa !4
  %65 = load i64, ptr %30, align 8, !tbaa !4
  %66 = icmp sle i64 %64, %65
  br i1 %66, label %68, label %67

67:                                               ; preds = %63
  br label %109

68:                                               ; preds = %63
  %69 = load i64, ptr %25, align 8, !tbaa !4
  %70 = mul nsw i64 %69, 1
  %71 = add nsw i64 0, %70
  store i64 %71, ptr %33, align 8, !tbaa !4
  %72 = load ptr, ptr %36, align 8, !tbaa !25
  %73 = load i64, ptr %33, align 8, !tbaa !4
  %74 = getelementptr inbounds double, ptr %72, i64 %73
  %75 = load double, ptr %74, align 8, !tbaa !10
  store double %75, ptr %19, align 8, !tbaa !10
  %76 = load ptr, ptr %37, align 8, !tbaa !25
  %77 = load i64, ptr %33, align 8, !tbaa !4
  %78 = getelementptr inbounds double, ptr %76, i64 %77
  %79 = load double, ptr %78, align 8, !tbaa !10
  store double %79, ptr %20, align 8, !tbaa !10
  %80 = load ptr, ptr %38, align 8, !tbaa !25
  %81 = load i64, ptr %33, align 8, !tbaa !4
  %82 = getelementptr inbounds double, ptr %80, i64 %81
  %83 = load double, ptr %82, align 8, !tbaa !10
  store double %83, ptr %21, align 8, !tbaa !10
  %84 = load ptr, ptr %39, align 8, !tbaa !25
  %85 = load i64, ptr %33, align 8, !tbaa !4
  %86 = getelementptr inbounds double, ptr %84, i64 %85
  %87 = load double, ptr %86, align 8, !tbaa !10
  store double %87, ptr %22, align 8, !tbaa !10
  %88 = load double, ptr %19, align 8, !tbaa !10
  %89 = load double, ptr %21, align 8, !tbaa !10
  %90 = load double, ptr %20, align 8, !tbaa !10
  %91 = load double, ptr %22, align 8, !tbaa !10
  %92 = fmul double %90, %91
  %93 = call double @llvm.fmuladd.f64(double %88, double %89, double %92)
  %94 = load double, ptr %23, align 8, !tbaa !10
  %95 = fadd double %94, %93
  store double %95, ptr %23, align 8, !tbaa !10
  %96 = load double, ptr %19, align 8, !tbaa !10
  %97 = load double, ptr %22, align 8, !tbaa !10
  %98 = load double, ptr %20, align 8, !tbaa !10
  %99 = load double, ptr %21, align 8, !tbaa !10
  %100 = fmul double %98, %99
  %101 = fneg double %100
  %102 = call double @llvm.fmuladd.f64(double %96, double %97, double %101)
  %103 = load double, ptr %24, align 8, !tbaa !10
  %104 = fadd double %103, %102
  store double %104, ptr %24, align 8, !tbaa !10
  br label %105

105:                                              ; preds = %68
  br label %106

106:                                              ; preds = %105
  %107 = load i64, ptr %25, align 8, !tbaa !4
  %108 = add nsw i64 %107, 1
  store i64 %108, ptr %25, align 8, !tbaa !4
  br label %63

109:                                              ; preds = %67
  br label %110

110:                                              ; preds = %109
  %111 = load ptr, ptr %10, align 8
  %112 = load i32, ptr %111, align 4, !tbaa !8
  call void @__kmpc_for_static_fini(ptr @1, i32 %112)
  call void @llvm.lifetime.end.p0(i64 8, ptr %33) #3
  call void @llvm.lifetime.end.p0(i64 4, ptr %32) #3
  call void @llvm.lifetime.end.p0(i64 8, ptr %31) #3
  call void @llvm.lifetime.end.p0(i64 8, ptr %30) #3
  call void @llvm.lifetime.end.p0(i64 8, ptr %29) #3
  br label %113

113:                                              ; preds = %110, %9
  call void @llvm.lifetime.end.p0(i64 8, ptr %27) #3
  call void @llvm.lifetime.end.p0(i64 8, ptr %26) #3
  call void @llvm.lifetime.end.p0(i64 8, ptr %25) #3
  %114 = load ptr, ptr %10, align 8
  %115 = load i32, ptr %114, align 4, !tbaa !8
  call void @__kmpc_barrier(ptr @2, i32 %115)
  %116 = getelementptr inbounds [2 x ptr], ptr %34, i64 0, i64 0
  store ptr %23, ptr %116, align 8
  %117 = getelementptr inbounds [2 x ptr], ptr %34, i64 0, i64 1
  store ptr %24, ptr %117, align 8
  %118 = load ptr, ptr %10, align 8
  %119 = load i32, ptr %118, align 4, !tbaa !8
  %120 = call i32 @__kmpc_reduce_nowait(ptr @4, i32 %119, i32 2, i64 16, ptr %34, ptr @statevec_calcInnerProductLocal.omp_outlined.omp.reduction.reduction_func, ptr @.gomp_critical_user_.reduction.var)
  switch i32 %120, label %133 [
    i32 1, label %121
    i32 2, label %128
  ]

121:                                              ; preds = %113
  %122 = load double, ptr %40, align 8, !tbaa !10
  %123 = load double, ptr %23, align 8, !tbaa !10
  %124 = fadd double %122, %123
  store double %124, ptr %40, align 8, !tbaa !10
  %125 = load double, ptr %41, align 8, !tbaa !10
  %126 = load double, ptr %24, align 8, !tbaa !10
  %127 = fadd double %125, %126
  store double %127, ptr %41, align 8, !tbaa !10
  call void @__kmpc_end_reduce_nowait(ptr @4, i32 %119, ptr @.gomp_critical_user_.reduction.var)
  br label %133

128:                                              ; preds = %113
  %129 = load double, ptr %23, align 8, !tbaa !10
  %130 = atomicrmw fadd ptr %40, double %129 monotonic, align 8
  %131 = load double, ptr %24, align 8, !tbaa !10
  %132 = atomicrmw fadd ptr %41, double %131 monotonic, align 8
  br label %133

133:                                              ; preds = %128, %121, %113
  call void @llvm.lifetime.end.p0(i64 8, ptr %24) #3
  call void @llvm.lifetime.end.p0(i64 8, ptr %23) #3
  call void @llvm.lifetime.end.p0(i64 8, ptr %22) #3
  call void @llvm.lifetime.end.p0(i64 8, ptr %21) #3
  call void @llvm.lifetime.end.p0(i64 8, ptr %20) #3
  call void @llvm.lifetime.end.p0(i64 8, ptr %19) #3
  ret void
}