; Function Attrs: alwaysinline norecurse nounwind uwtable
define internal void @statevec_calcInnerProductLocal.omp_outlined(ptr noalias noundef readonly captures(none) %0, ptr noalias readnone captures(none) %1, ptr noundef nonnull readonly align 8 captures(none) dereferenceable(8) %2, ptr noundef nonnull readonly align 8 captures(none) dereferenceable(8) %3, ptr noundef nonnull readonly align 8 captures(none) dereferenceable(8) %4, ptr noundef nonnull readonly align 8 captures(none) dereferenceable(8) %5, ptr noundef nonnull readonly align 8 captures(none) dereferenceable(8) %6, ptr noundef nonnull align 8 captures(none) dereferenceable(8) %7, ptr noundef nonnull align 8 captures(none) dereferenceable(8) %8) #3 {
  %10 = alloca double, align 8
  %11 = alloca double, align 8
  %12 = alloca i64, align 8
  %13 = alloca i64, align 8
  %14 = alloca i64, align 8
  %15 = alloca i32, align 4
  %16 = alloca [2 x ptr], align 8
  call void @llvm.lifetime.start.p0(i64 8, ptr nonnull %10) #4
  store double 0.000000e+00, ptr %10, align 8, !tbaa !4
  call void @llvm.lifetime.start.p0(i64 8, ptr nonnull %11) #4
  store double 0.000000e+00, ptr %11, align 8, !tbaa !4
  %17 = load i64, ptr %2, align 8, !tbaa !16
  %18 = icmp sgt i64 %17, 0
  %.pre = load i32, ptr %0, align 4, !tbaa !18
  br i1 %18, label %19, label %47

19:                                               ; preds = %9
  %20 = add nsw i64 %17, -1
  call void @llvm.lifetime.start.p0(i64 8, ptr nonnull %12) #4
  store i64 0, ptr %12, align 8, !tbaa !16
  call void @llvm.lifetime.start.p0(i64 8, ptr nonnull %13) #4
  store i64 %20, ptr %13, align 8, !tbaa !16
  call void @llvm.lifetime.start.p0(i64 8, ptr nonnull %14) #4
  store i64 1, ptr %14, align 8, !tbaa !16
  call void @llvm.lifetime.start.p0(i64 4, ptr nonnull %15) #4
  store i32 0, ptr %15, align 4, !tbaa !18
  call void @__kmpc_for_static_init_8(ptr nonnull @1, i32 %.pre, i32 34, ptr nonnull %15, ptr nonnull %12, ptr nonnull %13, ptr nonnull %14, i64 1, i64 1)
  %21 = load i64, ptr %13, align 8, !tbaa !16
  %22 = call i64 @llvm.smin.i64(i64 %21, i64 %20)
  store i64 %22, ptr %13, align 8, !tbaa !16
  %23 = load i64, ptr %12, align 8, !tbaa !16
  %.not31 = icmp sgt i64 %23, %22
  br i1 %.not31, label %._crit_edge, label %.lr.ph

.lr.ph:                                           ; preds = %19
  %24 = load ptr, ptr %3, align 8, !tbaa !26
  %25 = load ptr, ptr %4, align 8, !tbaa !26
  %26 = load ptr, ptr %5, align 8, !tbaa !26
  %27 = load ptr, ptr %6, align 8, !tbaa !26
  br label %28

28:                                               ; preds = %.lr.ph, %28
  %.032 = phi i64 [ %23, %.lr.ph ], [ %46, %28 ]
  %29 = phi double [ 0.000000e+00, %.lr.ph ], [ %41, %28 ]
  %30 = phi double [ 0.000000e+00, %.lr.ph ], [ %45, %28 ]
  %31 = getelementptr inbounds double, ptr %24, i64 %.032
  %32 = load double, ptr %31, align 8, !tbaa !4
  %33 = getelementptr inbounds double, ptr %25, i64 %.032
  %34 = load double, ptr %33, align 8, !tbaa !4
  %35 = getelementptr inbounds double, ptr %26, i64 %.032
  %36 = load double, ptr %35, align 8, !tbaa !4
  %37 = getelementptr inbounds double, ptr %27, i64 %.032
  %38 = load double, ptr %37, align 8, !tbaa !4
  %39 = fmul double %34, %38
  %40 = call double @llvm.fmuladd.f64(double %32, double %36, double %39)
  %41 = fadd double %29, %40
  store double %41, ptr %10, align 8, !tbaa !4
  %42 = fneg double %36
  %43 = fmul double %34, %42
  %44 = call double @llvm.fmuladd.f64(double %32, double %38, double %43)
  %45 = fadd double %44, %30
  store double %45, ptr %11, align 8, !tbaa !4
  %46 = add i64 %.032, 1
  %exitcond.not = icmp eq i64 %.032, %22
  br i1 %exitcond.not, label %._crit_edge, label %28

._crit_edge:                                      ; preds = %28, %19
  call void @__kmpc_for_static_fini(ptr nonnull @1, i32 %.pre)
  call void @llvm.lifetime.end.p0(i64 4, ptr nonnull %15) #4
  call void @llvm.lifetime.end.p0(i64 8, ptr nonnull %14) #4
  call void @llvm.lifetime.end.p0(i64 8, ptr nonnull %13) #4
  call void @llvm.lifetime.end.p0(i64 8, ptr nonnull %12) #4
  br label %47

47:                                               ; preds = %._crit_edge, %9
  call void @__kmpc_barrier(ptr nonnull @2, i32 %.pre)
  store ptr %10, ptr %16, align 8
  %48 = getelementptr inbounds nuw i8, ptr %16, i64 8
  store ptr %11, ptr %48, align 8
  %49 = call i32 @__kmpc_reduce_nowait(ptr nonnull @4, i32 %.pre, i32 2, i64 16, ptr nonnull %16, ptr nonnull @statevec_calcInnerProductLocal.omp_outlined.omp.reduction.reduction_func, ptr nonnull @.gomp_critical_user_.reduction.var)
  switch i32 %49, label %62 [
    i32 1, label %50
    i32 2, label %57
  ]

50:                                               ; preds = %47
  %51 = load double, ptr %7, align 8, !tbaa !4
  %52 = load double, ptr %10, align 8, !tbaa !4
  %53 = fadd double %51, %52
  store double %53, ptr %7, align 8, !tbaa !4
  %54 = load double, ptr %8, align 8, !tbaa !4
  %55 = load double, ptr %11, align 8, !tbaa !4
  %56 = fadd double %54, %55
  store double %56, ptr %8, align 8, !tbaa !4
  call void @__kmpc_end_reduce_nowait(ptr nonnull @4, i32 %.pre, ptr nonnull @.gomp_critical_user_.reduction.var)
  br label %62

57:                                               ; preds = %47
  %58 = load double, ptr %10, align 8, !tbaa !4
  %59 = atomicrmw fadd ptr %7, double %58 monotonic, align 8
  %60 = load double, ptr %11, align 8, !tbaa !4
  %61 = atomicrmw fadd ptr %8, double %60 monotonic, align 8
  br label %62

62:                                               ; preds = %57, %50, %47
  call void @llvm.lifetime.end.p0(i64 8, ptr nonnull %11) #4
  call void @llvm.lifetime.end.p0(i64 8, ptr nonnull %10) #4
  ret void
}